Certificate:
    Data:
        Version: 1 (0x0)
        Serial Number:
            34:7d:ee:46:60:3f:66:26:7f:c2:82:b8:00:91:ae:81:c8:9d:d3:92
        Signature Algorithm: NULL
        Issuer: CN = epgsql_test_cert
        Validity
            Not Before: Feb 17 03:59:45 2019 GMT
            Not After : Feb 14 03:59:45 2029 GMT
        Subject: CN = epgsql_test_cert
        Subject Public Key Info:
            Public Key Algorithm: rsaEncryption
                RSA Public-Key: (2048 bit)
                Modulus:
                    00:e6:aa:51:89:cc:d1:51:2f:83:bd:54:9f:70:d1:
                    8b:44:5d:df:f1:fb:8b:41:2c:1d:ad:82:fd:ac:73:
                    68:77:85:37:24:8e:00:de:fa:c3:2e:c1:f7:d9:1b:
                    5e:77:2a:c2:bb:5d:35:fd:16:0c:e1:00:54:d7:9d:
                    7d:97:b3:b6:03:48:23:36:73:43:9a:d9:95:fe:25:
                    de:15:74:d5:b0:90:b5:d3:90:13:0e:c4:6d:e0:d2:
                    74:58:37:c9:57:98:56:c0:09:f7:1c:1e:55:48:2e:
                    3a:a9:80:dc:fa:d0:61:f2:f4:fc:dd:c4:2d:5f:06:
                    21:3c:8a:4f:b6:40:b9:b9:5e:df:06:a9:89:a6:04:
                    79:e9:58:ee:a4:d3:97:f3:c3:30:c2:e6:e0:fc:29:
                    f4:0f:db:4a:4a:02:77:72:fe:07:21:dc:c6:68:b0:
                    cf:77:09:6c:62:61:e2:91:e8:c9:fb:cb:47:34:03:
                    f8:1b:54:d5:22:28:14:e3:bc:b7:9a:32:92:6c:de:
                    b0:14:2d:56:f6:9c:e3:58:1e:4c:23:79:33:22:e0:
                    a8:36:24:c7:94:7c:b3:a9:26:4d:c2:44:6f:93:ce:
                    90:a8:9c:1f:fb:ea:2b:e8:09:fa:2d:82:90:0a:c5:
                    40:29:f2:4b:6e:03:37:8e:72:6c:01:57:80:2d:15:
                    d0:cf
                Exponent: 65537 (0x10001)
    Signature Algorithm: NULL
-----BEGIN CERTIFICATE-----
MIICtjCCAZ4CFBGhejjyQW27C2G1sCW5QvdZjC+fMA0GCSqGSIb3DQEBCwUAMBQx
EjAQBgNVBAMMCWVwZ3NxbCBDQTAeFw0xOTAyMTcwMzU5NDVaFw0yOTAyMTQwMzU5
NDVaMBsxGTAXBgNVBAMMEGVwZ3NxbF90ZXN0X2NlcnQwggEiMA0GCSqGSIb3DQEB
AQUAA4IBDwAwggEKAoIBAQDmqlGJzNFRL4O9VJ9w0YtEXd/x+4tBLB2tgv2sc2h3
hTckjgDe+sMuwffZG153KsK7XTX9FgzhAFTXnX2Xs7YDSCM2c0Oa2ZX+Jd4VdNWw
kLXTkBMOxG3g0nRYN8lXmFbACfccHlVILjqpgNz60GHy9PzdxC1fBiE8ik+2QLm5
Xt8GqYmmBHnpWO6k05fzwzDC5uD8KfQP20pKAndy/gch3MZosM93CWxiYeKR6Mn7
y0c0A/gbVNUiKBTjvLeaMpJs3rAULVb2nONYHkwjeTMi4Kg2JMeUfLOpJk3CRG+T
zpConB/76ivoCfotgpAKxUAp8ktuAzeOcmwBV4AtFdDPAgMBAAEwDQYJKoZIhvcN
AQELBQADggEBAGetUizPjbLeedUaPPvzSoYB42RSbzjRqr/3WxLNjmaWQ4oCFzR4
eUjpjDtrmYpj/qHBlCBaHLgYX6wagf0dfXRBfdw/vI3bW0P6AzDrhEdiDukm3cQY
skNDpYfgh88VBFGGtV4BAcJPX2GuTYoAOhxkgTT7jjlfA1U53T+IsInBMPkaWHw/
pQ/8epvRoVGkmMefDx1AseB23xF5+I2l5WwbGyCHkz/gP+6wWS8XOMHnn/xEzDEG
D3/Cg67xEshkYWPejTTSb9oAvfzrSynO2v7aTkPV6CqTYZ/66uXGPDRH84fUvfcK
GRQJpMGmkLYobg1CGfgqMgYhxrlOjqdr80E=
-----END CERTIFICATE-----
